; ModuleID = 'bench/openusd/original/renderBuffer.cpp.ll'
source_filename = "bench/openusd/original/renderBuffer.cpp.ll"
target datalayout = "e-m:e-p270:32:32-p271:32:32-p272:64:64-i64:64-i128:128-f80:128-n8:16:32:64-S128"
target triple = "x86_64-pc-linux-gnu"

%"struct.pxrInternal_v0_24__pxrReserved__::HdRenderBufferDescriptor" = type <{ %"class.pxrInternal_v0_24__pxrReserved__::GfVec3i", i32, i8, [3 x i8] }>
%"class.pxrInternal_v0_24__pxrReserved__::GfVec3i" = type { [3 x i32] }
%"class.pxrInternal_v0_24__pxrReserved__::TfCallContext" = type <{ ptr, ptr, i64, ptr, i8, [7 x i8] }>
%"class.pxrInternal_v0_24__pxrReserved__::VtValue" = type { %"union.std::aligned_storage<8, 8>::type", %"class.pxrInternal_v0_24__pxrReserved__::TfPointerAndBits" }
%"union.std::aligned_storage<8, 8>::type" = type { [8 x i8] }
%"class.pxrInternal_v0_24__pxrReserved__::TfPointerAndBits" = type { ptr }

$_ZNK32pxrInternal_v0_24__pxrReserved__14HdRenderBuffer11GetResourceEb = comdat any

@_ZTVN32pxrInternal_v0_24__pxrReserved__14HdRenderBufferE = unnamed_addr constant { [20 x ptr] } { [20 x ptr] [ptr null, ptr @_ZTIN32pxrInternal_v0_24__pxrReserved__14HdRenderBufferE, ptr @_ZN32pxrInternal_v0_24__pxrReserved__14HdRenderBufferD1Ev, ptr @_ZN32pxrInternal_v0_24__pxrReserved__14HdRenderBufferD0Ev, ptr @_ZN32pxrInternal_v0_24__pxrReserved__14HdRenderBuffer4SyncEPNS_15HdSceneDelegateEPNS_13HdRenderParamEPj, ptr @_ZN32pxrInternal_v0_24__pxrReserved__14HdRenderBuffer8FinalizeEPNS_13HdRenderParamE, ptr @_ZNK32pxrInternal_v0_24__pxrReserved__14HdRenderBuffer23GetInitialDirtyBitsMaskEv, ptr @__cxa_pure_virtual, ptr @__cxa_pure_virtual, ptr @__cxa_pure_virtual, ptr @__cxa_pure_virtual, ptr @__cxa_pure_virtual, ptr @__cxa_pure_virtual, ptr @__cxa_pure_virtual, ptr @__cxa_pure_virtual, ptr @__cxa_pure_virtual, ptr @__cxa_pure_virtual, ptr @__cxa_pure_virtual, ptr @_ZNK32pxrInternal_v0_24__pxrReserved__14HdRenderBuffer11GetResourceEb, ptr @__cxa_pure_virtual] }, align 8
@.str = private unnamed_addr constant [125 x i8] c"generated/home/dtcxzyw/WorkSpace/Projects/compilers/llvm-opt-benchmark/bench/openusd/OpenUSD/pxr/imaging/hd/renderBuffer.cpp\00", align 1
@__func__._ZN32pxrInternal_v0_24__pxrReserved__14HdRenderBuffer4SyncEPNS_15HdSceneDelegateEPNS_13HdRenderParamEPj = private unnamed_addr constant [5 x i8] c"Sync\00", align 1
@__PRETTY_FUNCTION__._ZN32pxrInternal_v0_24__pxrReserved__14HdRenderBuffer4SyncEPNS_15HdSceneDelegateEPNS_13HdRenderParamEPj = private unnamed_addr constant [119 x i8] c"virtual void pxrInternal_v0_24__pxrReserved__::HdRenderBuffer::Sync(HdSceneDelegate *, HdRenderParam *, HdDirtyBits *)\00", align 1
@.str.1 = private unnamed_addr constant [36 x i8] c"Bad dimensions for render buffer %s\00", align 1
@_ZTVN10__cxxabiv120__si_class_type_infoE = external global [0 x ptr]
@_ZTSN32pxrInternal_v0_24__pxrReserved__14HdRenderBufferE = constant [53 x i8] c"N32pxrInternal_v0_24__pxrReserved__14HdRenderBufferE\00", align 1
@_ZTIN32pxrInternal_v0_24__pxrReserved__7HdBprimE = external constant ptr
@_ZTIN32pxrInternal_v0_24__pxrReserved__14HdRenderBufferE = constant { ptr, ptr, ptr } { ptr getelementptr inbounds (ptr, ptr @_ZTVN10__cxxabiv120__si_class_type_infoE, i64 2), ptr @_ZTSN32pxrInternal_v0_24__pxrReserved__14HdRenderBufferE, ptr @_ZTIN32pxrInternal_v0_24__pxrReserved__7HdBprimE }, align 8

@_ZN32pxrInternal_v0_24__pxrReserved__14HdRenderBufferD1Ev = unnamed_addr alias void (ptr), ptr @_ZN32pxrInternal_v0_24__pxrReserved__14HdRenderBufferD2Ev

; Function Attrs: mustprogress uwtable
define void @_ZN32pxrInternal_v0_24__pxrReserved__14HdRenderBufferC2ERKNS_7SdfPathE(ptr noundef nonnull align 8 dereferenceable(16) %0, ptr noundef nonnull align 4 dereferenceable(8) %1) unnamed_addr #0 align 2 {
  tail call void @_ZN32pxrInternal_v0_24__pxrReserved__7HdBprimC2ERKNS_7SdfPathE(ptr noundef nonnull align 8 dereferenceable(16) %0, ptr noundef nonnull align 4 dereferenceable(8) %1)
  store ptr getelementptr inbounds inrange(-16, 144) (i8, ptr @_ZTVN32pxrInternal_v0_24__pxrReserved__14HdRenderBufferE, i64 16), ptr %0, align 8
  ret void
}

declare void @_ZN32pxrInternal_v0_24__pxrReserved__7HdBprimC2ERKNS_7SdfPathE(ptr noundef nonnull align 8 dereferenceable(16), ptr noundef nonnull align 4 dereferenceable(8)) unnamed_addr #1

; Function Attrs: mustprogress nounwind uwtable
define void @_ZN32pxrInternal_v0_24__pxrReserved__14HdRenderBufferD2Ev(ptr noundef nonnull align 8 dereferenceable(16) %0) unnamed_addr #2 align 2 {
  tail call void @_ZN32pxrInternal_v0_24__pxrReserved__7HdBprimD2Ev(ptr noundef nonnull align 8 dereferenceable(16) %0) #7
  ret void
}

; Function Attrs: nounwind
declare void @_ZN32pxrInternal_v0_24__pxrReserved__7HdBprimD2Ev(ptr noundef nonnull align 8 dereferenceable(16)) unnamed_addr #3

; Function Attrs: cold mustprogress noreturn nounwind memory(inaccessiblemem: write) uwtable
define void @_ZN32pxrInternal_v0_24__pxrReserved__14HdRenderBufferD0Ev(ptr nocapture nonnull readnone align 8 %0) unnamed_addr #4 align 2 {
  tail call void @llvm.trap() #8
  unreachable
}

; Function Attrs: cold noreturn nounwind memory(inaccessiblemem: write)
declare void @llvm.trap() #5

; Function Attrs: mustprogress nofree norecurse nosync nounwind willreturn memory(none) uwtable
define noundef i32 @_ZNK32pxrInternal_v0_24__pxrReserved__14HdRenderBuffer23GetInitialDirtyBitsMaskEv(ptr nocapture nonnull readnone align 8 %0) unnamed_addr #6 align 2 {
  ret i32 1
}

; Function Attrs: mustprogress uwtable
define void @_ZN32pxrInternal_v0_24__pxrReserved__14HdRenderBuffer4SyncEPNS_15HdSceneDelegateEPNS_13HdRenderParamEPj(ptr noundef nonnull align 8 dereferenceable(16) %0, ptr noundef %1, ptr nocapture readnone %2, ptr nocapture noundef %3) unnamed_addr #0 align 2 {
  %5 = alloca %"struct.pxrInternal_v0_24__pxrReserved__::HdRenderBufferDescriptor", align 4
  %6 = alloca %"class.pxrInternal_v0_24__pxrReserved__::TfCallContext", align 8
  %7 = load i32, ptr %3, align 4
  %8 = and i32 %7, 1
  %.not = icmp eq i32 %8, 0
  br i1 %.not, label %38, label %9

9:                                                ; preds = %4
  %10 = getelementptr inbounds nuw i8, ptr %0, i64 8
  %11 = load ptr, ptr %1, align 8
  %12 = getelementptr inbounds i8, ptr %11, i64 312
  %13 = load ptr, ptr %12, align 8
  call void %13(ptr dead_on_unwind nonnull writable sret(%"struct.pxrInternal_v0_24__pxrReserved__::HdRenderBufferDescriptor") align 4 %5, ptr noundef nonnull align 8 dereferenceable(24) %1, ptr noundef nonnull align 4 dereferenceable(8) %10)
  %14 = load i32, ptr %5, align 4
  %15 = icmp sgt i32 %14, -1
  %16 = getelementptr inbounds i8, ptr %5, i64 4
  %17 = load i32, ptr %16, align 4
  %18 = icmp sgt i32 %17, -1
  %or.cond = select i1 %15, i1 %18, i1 false
  %19 = getelementptr inbounds i8, ptr %5, i64 8
  %20 = load i32, ptr %19, align 4
  %21 = icmp sgt i32 %20, -1
  %or.cond8 = select i1 %or.cond, i1 %21, i1 false
  br i1 %or.cond8, label %28, label %22

22:                                               ; preds = %9
  store ptr @.str, ptr %6, align 8
  %23 = getelementptr inbounds nuw i8, ptr %6, i64 8
  store ptr @__func__._ZN32pxrInternal_v0_24__pxrReserved__14HdRenderBuffer4SyncEPNS_15HdSceneDelegateEPNS_13HdRenderParamEPj, ptr %23, align 8
  %24 = getelementptr inbounds nuw i8, ptr %6, i64 16
  store i64 40, ptr %24, align 8
  %25 = getelementptr inbounds nuw i8, ptr %6, i64 24
  store ptr @__PRETTY_FUNCTION__._ZN32pxrInternal_v0_24__pxrReserved__14HdRenderBuffer4SyncEPNS_15HdSceneDelegateEPNS_13HdRenderParamEPj, ptr %25, align 8
  %26 = getelementptr inbounds nuw i8, ptr %6, i64 32
  store i8 0, ptr %26, align 8
  %27 = call noundef ptr @_ZNK32pxrInternal_v0_24__pxrReserved__7SdfPath7GetTextEv(ptr noundef nonnull align 4 dereferenceable(8) %10)
  call void (ptr, i32, ptr, ...) @_ZN32pxrInternal_v0_24__pxrReserved__18Tf_PostErrorHelperERKNS_13TfCallContextENS_16TfDiagnosticTypeEPKcz(ptr noundef nonnull align 8 dereferenceable(33) %6, i32 noundef 1, ptr noundef nonnull @.str.1, ptr noundef %27)
  br label %41

28:                                               ; preds = %9
  %29 = getelementptr inbounds nuw i8, ptr %5, i64 12
  %30 = load i32, ptr %29, align 4
  %31 = getelementptr inbounds nuw i8, ptr %5, i64 16
  %32 = load i8, ptr %31, align 4
  %33 = trunc i8 %32 to i1
  %34 = load ptr, ptr %0, align 8
  %35 = getelementptr inbounds i8, ptr %34, i64 40
  %36 = load ptr, ptr %35, align 8
  %37 = call noundef zeroext i1 %36(ptr noundef nonnull align 8 dereferenceable(16) %0, ptr noundef nonnull align 4 dereferenceable(12) %5, i32 noundef %30, i1 noundef zeroext %33)
  %.pre = load i32, ptr %3, align 4
  br label %38

38:                                               ; preds = %28, %4
  %39 = phi i32 [ %.pre, %28 ], [ %7, %4 ]
  %40 = and i32 %39, -2
  store i32 %40, ptr %3, align 4
  br label %41

41:                                               ; preds = %38, %22
  ret void
}

declare void @_ZN32pxrInternal_v0_24__pxrReserved__18Tf_PostErrorHelperERKNS_13TfCallContextENS_16TfDiagnosticTypeEPKcz(ptr noundef nonnull align 8 dereferenceable(33), i32 noundef, ptr noundef, ...) local_unnamed_addr #1

declare noundef ptr @_ZNK32pxrInternal_v0_24__pxrReserved__7SdfPath7GetTextEv(ptr noundef nonnull align 4 dereferenceable(8)) local_unnamed_addr #1

; Function Attrs: mustprogress uwtable
define void @_ZN32pxrInternal_v0_24__pxrReserved__14HdRenderBuffer8FinalizeEPNS_13HdRenderParamE(ptr noundef nonnull align 8 dereferenceable(16) %0, ptr nocapture readnone %1) unnamed_addr #0 align 2 {
  %3 = load ptr, ptr %0, align 8
  %4 = getelementptr inbounds i8, ptr %3, i64 136
  %5 = load ptr, ptr %4, align 8
  tail call void %5(ptr noundef nonnull align 8 dereferenceable(16) %0)
  ret void
}

declare void @__cxa_pure_virtual() unnamed_addr

; Function Attrs: mustprogress uwtable
define linkonce_odr void @_ZNK32pxrInternal_v0_24__pxrReserved__14HdRenderBuffer11GetResourceEb(ptr dead_on_unwind noalias writable sret(%"class.pxrInternal_v0_24__pxrReserved__::VtValue") align 8 %0, ptr noundef nonnull align 8 dereferenceable(16) %1, i1 noundef zeroext %2) unnamed_addr #0 comdat align 2 {
  %4 = getelementptr inbounds nuw i8, ptr %0, i64 8
  store ptr null, ptr %4, align 8
  ret void
}


!llvm.module.flags = !{!0, !1, !2, !3}

!0 = !{i32 1, !"wchar_size", i32 4}
!1 = !{i32 8, !"PIC Level", i32 2}
!2 = !{i32 7, !"uwtable", i32 2}
!3 = !{i32 7, !"frame-pointer", i32 2}
